target datalayout = "e-m:e-p270:32:32-p271:32:32-p272:64:64-i64:64-i128:128-f80:128-n8:16:32:64-S128"
target triple = "x86_64-pc-linux-gnu"

%struct.imap_buffer = type { %struct.imap_socket, i32, i32, [1024 x i8] }
%struct.imap_socket = type { [2 x i32], ptr }

@stderr = external global ptr, align 8
@verbosity = internal global i32 0, align 4
@.str.75 = private unnamed_addr constant [12 x i8] c"SSL_connect\00", align 1
@.str.78 = private unnamed_addr constant [20 x i8] c"%s: unexpected EOF\0A\00", align 1
@.str.82 = private unnamed_addr constant [5 x i8] c"read\00", align 1

; Function Attrs: nounwind uwtable
define internal void @socket_perror(ptr noundef %0, ptr noundef %1, i32 noundef %2) #0 {
  %4 = alloca ptr, align 8
  %5 = alloca ptr, align 8
  %6 = alloca i32, align 4
  %7 = alloca i32, align 4
  store ptr %0, ptr %4, align 8, !tbaa !29
  store ptr %1, ptr %5, align 8, !tbaa !93
  store i32 %2, ptr %6, align 4, !tbaa !4
  %8 = load ptr, ptr %5, align 8, !tbaa !93
  %9 = getelementptr inbounds nuw %struct.imap_socket, ptr %8, i32 0, i32 1
  %10 = load ptr, ptr %9, align 8, !tbaa !99
  %11 = icmp ne ptr %10, null
  br i1 %11, label %12, label %22

12:                                               ; preds = %3
  call void @llvm.lifetime.start.p0(i64 4, ptr %7) #11
  %13 = load ptr, ptr %5, align 8, !tbaa !93
  %14 = getelementptr inbounds nuw %struct.imap_socket, ptr %13, i32 0, i32 1
  %15 = load ptr, ptr %14, align 8, !tbaa !99
  %16 = load i32, ptr %6, align 4, !tbaa !4
  %17 = call i32 @SSL_get_error(ptr noundef %15, i32 noundef %16)
  store i32 %17, ptr %7, align 4, !tbaa !4
  %18 = load i32, ptr %7, align 4, !tbaa !4
  switch i32 %18, label %20 [
    i32 0, label %21
    i32 5, label %19
  ]

19:                                               ; preds = %12
  call void @perror(ptr noundef @.str.75)
  br label %21

20:                                               ; preds = %12
  call void @ssl_socket_perror(ptr noundef @.str.75)
  br label %21

21:                                               ; preds = %20, %19, %12
  call void @llvm.lifetime.end.p0(i64 4, ptr %7) #11
  br label %32

22:                                               ; preds = %3
  %23 = load i32, ptr %6, align 4, !tbaa !4
  %24 = icmp slt i32 %23, 0
  br i1 %24, label %25, label %27

25:                                               ; preds = %22
  %26 = load ptr, ptr %4, align 8, !tbaa !29
  call void @perror(ptr noundef %26)
  br label %31

27:                                               ; preds = %22
  %28 = load ptr, ptr @stderr, align 8, !tbaa !16
  %29 = load ptr, ptr %4, align 8, !tbaa !29
  %30 = call i32 (ptr, ptr, ...) @fprintf(ptr noundef %28, ptr noundef @.str.78, ptr noundef %29) #11
  br label %31

31:                                               ; preds = %27, %25
  br label %32

32:                                               ; preds = %31, %21
  ret void
}

; Function Attrs: nounwind uwtable
define internal i32 @socket_read(ptr noundef %0, ptr noundef %1, i32 noundef %2) #0 {
  %4 = alloca ptr, align 8
  %5 = alloca ptr, align 8
  %6 = alloca i32, align 4
  %7 = alloca i64, align 8
  store ptr %0, ptr %4, align 8, !tbaa !93
  store ptr %1, ptr %5, align 8, !tbaa !29
  store i32 %2, ptr %6, align 4, !tbaa !4
  call void @llvm.lifetime.start.p0(i64 8, ptr %7) #11
  %8 = load ptr, ptr %4, align 8, !tbaa !93
  %9 = getelementptr inbounds nuw %struct.imap_socket, ptr %8, i32 0, i32 1
  %10 = load ptr, ptr %9, align 8, !tbaa !99
  %11 = icmp ne ptr %10, null
  br i1 %11, label %12, label %20

12:                                               ; preds = %3
  %13 = load ptr, ptr %4, align 8, !tbaa !93
  %14 = getelementptr inbounds nuw %struct.imap_socket, ptr %13, i32 0, i32 1
  %15 = load ptr, ptr %14, align 8, !tbaa !99
  %16 = load ptr, ptr %5, align 8, !tbaa !29
  %17 = load i32, ptr %6, align 4, !tbaa !4
  %18 = call i32 @SSL_read(ptr noundef %15, ptr noundef %16, i32 noundef %17)
  %19 = sext i32 %18 to i64
  store i64 %19, ptr %7, align 8, !tbaa !88
  br label %29

20:                                               ; preds = %3
  %21 = load ptr, ptr %4, align 8, !tbaa !93
  %22 = getelementptr inbounds nuw %struct.imap_socket, ptr %21, i32 0, i32 0
  %23 = getelementptr inbounds [2 x i32], ptr %22, i64 0, i64 0
  %24 = load i32, ptr %23, align 8, !tbaa !4
  %25 = load ptr, ptr %5, align 8, !tbaa !29
  %26 = load i32, ptr %6, align 4, !tbaa !4
  %27 = sext i32 %26 to i64
  %28 = call i64 @xread(i32 noundef %24, ptr noundef %25, i64 noundef %27)
  store i64 %28, ptr %7, align 8, !tbaa !88
  br label %29

29:                                               ; preds = %20, %12
  %30 = load i64, ptr %7, align 8, !tbaa !88
  %31 = icmp sle i64 %30, 0
  br i1 %31, label %32, label %52

32:                                               ; preds = %29
  %33 = load ptr, ptr %4, align 8, !tbaa !93
  %34 = load i64, ptr %7, align 8, !tbaa !88
  %35 = trunc i64 %34 to i32
  call void @socket_perror(ptr noundef @.str.82, ptr noundef %33, i32 noundef %35)
  %36 = load ptr, ptr %4, align 8, !tbaa !93
  %37 = getelementptr inbounds nuw %struct.imap_socket, ptr %36, i32 0, i32 0
  %38 = getelementptr inbounds [2 x i32], ptr %37, i64 0, i64 0
  %39 = load i32, ptr %38, align 8, !tbaa !4
  %40 = call i32 @close(i32 noundef %39)
  %41 = load ptr, ptr %4, align 8, !tbaa !93
  %42 = getelementptr inbounds nuw %struct.imap_socket, ptr %41, i32 0, i32 0
  %43 = getelementptr inbounds [2 x i32], ptr %42, i64 0, i64 1
  %44 = load i32, ptr %43, align 4, !tbaa !4
  %45 = call i32 @close(i32 noundef %44)
  %46 = load ptr, ptr %4, align 8, !tbaa !93
  %47 = getelementptr inbounds nuw %struct.imap_socket, ptr %46, i32 0, i32 0
  %48 = getelementptr inbounds [2 x i32], ptr %47, i64 0, i64 1
  store i32 -1, ptr %48, align 4, !tbaa !4
  %49 = load ptr, ptr %4, align 8, !tbaa !93
  %50 = getelementptr inbounds nuw %struct.imap_socket, ptr %49, i32 0, i32 0
  %51 = getelementptr inbounds [2 x i32], ptr %50, i64 0, i64 0
  store i32 -1, ptr %51, align 8, !tbaa !4
  br label %52

52:                                               ; preds = %32, %29
  %53 = load i64, ptr %7, align 8, !tbaa !88
  %54 = trunc i64 %53 to i32
  call void @llvm.lifetime.end.p0(i64 8, ptr %7) #11
  ret i32 %54
}

; Function Attrs: nounwind uwtable
define internal i32 @buffer_gets(ptr noundef %0, ptr noundef %1) #0 {
  %3 = alloca i32, align 4
  %4 = alloca ptr, align 8
  %5 = alloca ptr, align 8
  %6 = alloca i32, align 4
  %7 = alloca i32, align 4
  %8 = alloca i32, align 4
  store ptr %0, ptr %4, align 8, !tbaa !102
  store ptr %1, ptr %5, align 8, !tbaa !8
  call void @llvm.lifetime.start.p0(i64 4, ptr %6) #11
  call void @llvm.lifetime.start.p0(i64 4, ptr %7) #11
  %9 = load ptr, ptr %4, align 8, !tbaa !102
  %10 = getelementptr inbounds nuw %struct.imap_buffer, ptr %9, i32 0, i32 2
  %11 = load i32, ptr %10, align 4, !tbaa !104
  store i32 %11, ptr %7, align 4, !tbaa !4
  %12 = load ptr, ptr %4, align 8, !tbaa !102
  %13 = getelementptr inbounds nuw %struct.imap_buffer, ptr %12, i32 0, i32 3
  %14 = getelementptr inbounds [1024 x i8], ptr %13, i64 0, i64 0
  %15 = load i32, ptr %7, align 4, !tbaa !4
  %16 = sext i32 %15 to i64
  %17 = getelementptr inbounds i8, ptr %14, i64 %16
  %18 = load ptr, ptr %5, align 8, !tbaa !8
  store ptr %17, ptr %18, align 8, !tbaa !29
  br label %19

19:                                               ; preds = %134, %2
  %20 = load ptr, ptr %4, align 8, !tbaa !102
  %21 = getelementptr inbounds nuw %struct.imap_buffer, ptr %20, i32 0, i32 2
  %22 = load i32, ptr %21, align 4, !tbaa !104
  %23 = add nsw i32 %22, 1
  %24 = load ptr, ptr %4, align 8, !tbaa !102
  %25 = getelementptr inbounds nuw %struct.imap_buffer, ptr %24, i32 0, i32 1
  %26 = load i32, ptr %25, align 8, !tbaa !105
  %27 = icmp sge i32 %23, %26
  br i1 %27, label %28, label %91

28:                                               ; preds = %19
  %29 = load i32, ptr %7, align 4, !tbaa !4
  %30 = icmp ne i32 %29, 0
  br i1 %30, label %31, label %64

31:                                               ; preds = %28
  %32 = load ptr, ptr %4, align 8, !tbaa !102
  %33 = getelementptr inbounds nuw %struct.imap_buffer, ptr %32, i32 0, i32 3
  %34 = getelementptr inbounds [1024 x i8], ptr %33, i64 0, i64 0
  %35 = load ptr, ptr %5, align 8, !tbaa !8
  store ptr %34, ptr %35, align 8, !tbaa !29
  %36 = load ptr, ptr %4, align 8, !tbaa !102
  %37 = getelementptr inbounds nuw %struct.imap_buffer, ptr %36, i32 0, i32 1
  %38 = load i32, ptr %37, align 8, !tbaa !105
  %39 = load i32, ptr %7, align 4, !tbaa !4
  %40 = sub nsw i32 %38, %39
  store i32 %40, ptr %6, align 4, !tbaa !4
  %41 = load i32, ptr %6, align 4, !tbaa !4
  %42 = icmp ne i32 %41, 0
  br i1 %42, label %43, label %55

43:                                               ; preds = %31
  %44 = load ptr, ptr %4, align 8, !tbaa !102
  %45 = getelementptr inbounds nuw %struct.imap_buffer, ptr %44, i32 0, i32 3
  %46 = getelementptr inbounds [1024 x i8], ptr %45, i64 0, i64 0
  %47 = load ptr, ptr %4, align 8, !tbaa !102
  %48 = getelementptr inbounds nuw %struct.imap_buffer, ptr %47, i32 0, i32 3
  %49 = getelementptr inbounds [1024 x i8], ptr %48, i64 0, i64 0
  %50 = load i32, ptr %7, align 4, !tbaa !4
  %51 = sext i32 %50 to i64
  %52 = getelementptr inbounds i8, ptr %49, i64 %51
  %53 = load i32, ptr %6, align 4, !tbaa !4
  %54 = sext i32 %53 to i64
  call void @llvm.memmove.p0.p0.i64(ptr align 8 %46, ptr align 1 %52, i64 %54, i1 false)
  br label %55

55:                                               ; preds = %43, %31
  %56 = load i32, ptr %7, align 4, !tbaa !4
  %57 = load ptr, ptr %4, align 8, !tbaa !102
  %58 = getelementptr inbounds nuw %struct.imap_buffer, ptr %57, i32 0, i32 2
  %59 = load i32, ptr %58, align 4, !tbaa !104
  %60 = sub nsw i32 %59, %56
  store i32 %60, ptr %58, align 4, !tbaa !104
  %61 = load i32, ptr %6, align 4, !tbaa !4
  %62 = load ptr, ptr %4, align 8, !tbaa !102
  %63 = getelementptr inbounds nuw %struct.imap_buffer, ptr %62, i32 0, i32 1
  store i32 %61, ptr %63, align 8, !tbaa !105
  store i32 0, ptr %7, align 4, !tbaa !4
  br label %64

64:                                               ; preds = %55, %28
  %65 = load ptr, ptr %4, align 8, !tbaa !102
  %66 = getelementptr inbounds nuw %struct.imap_buffer, ptr %65, i32 0, i32 0
  %67 = load ptr, ptr %4, align 8, !tbaa !102
  %68 = getelementptr inbounds nuw %struct.imap_buffer, ptr %67, i32 0, i32 3
  %69 = getelementptr inbounds [1024 x i8], ptr %68, i64 0, i64 0
  %70 = load ptr, ptr %4, align 8, !tbaa !102
  %71 = getelementptr inbounds nuw %struct.imap_buffer, ptr %70, i32 0, i32 1
  %72 = load i32, ptr %71, align 8, !tbaa !105
  %73 = sext i32 %72 to i64
  %74 = getelementptr inbounds i8, ptr %69, i64 %73
  %75 = load ptr, ptr %4, align 8, !tbaa !102
  %76 = getelementptr inbounds nuw %struct.imap_buffer, ptr %75, i32 0, i32 1
  %77 = load i32, ptr %76, align 8, !tbaa !105
  %78 = sext i32 %77 to i64
  %79 = sub i64 1024, %78
  %80 = trunc i64 %79 to i32
  %81 = call i32 @socket_read(ptr noundef %66, ptr noundef %74, i32 noundef %80)
  store i32 %81, ptr %6, align 4, !tbaa !4
  %82 = load i32, ptr %6, align 4, !tbaa !4
  %83 = icmp sle i32 %82, 0
  br i1 %83, label %84, label %85

84:                                               ; preds = %64
  store i32 -1, ptr %3, align 4
  store i32 1, ptr %8, align 4
  br label %139

85:                                               ; preds = %64
  %86 = load i32, ptr %6, align 4, !tbaa !4
  %87 = load ptr, ptr %4, align 8, !tbaa !102
  %88 = getelementptr inbounds nuw %struct.imap_buffer, ptr %87, i32 0, i32 1
  %89 = load i32, ptr %88, align 8, !tbaa !105
  %90 = add nsw i32 %89, %86
  store i32 %90, ptr %88, align 8, !tbaa !105
  br label %91

91:                                               ; preds = %85, %19
  %92 = load ptr, ptr %4, align 8, !tbaa !102
  %93 = getelementptr inbounds nuw %struct.imap_buffer, ptr %92, i32 0, i32 3
  %94 = load ptr, ptr %4, align 8, !tbaa !102
  %95 = getelementptr inbounds nuw %struct.imap_buffer, ptr %94, i32 0, i32 2
  %96 = load i32, ptr %95, align 4, !tbaa !104
  %97 = sext i32 %96 to i64
  %98 = getelementptr inbounds [1024 x i8], ptr %93, i64 0, i64 %97
  %99 = load i8, ptr %98, align 1, !tbaa !39
  %100 = sext i8 %99 to i32
  %101 = icmp eq i32 %100, 13
  br i1 %101, label %102, label %134

102:                                              ; preds = %91
  %103 = load ptr, ptr %4, align 8, !tbaa !102
  %104 = getelementptr inbounds nuw %struct.imap_buffer, ptr %103, i32 0, i32 3
  %105 = load ptr, ptr %4, align 8, !tbaa !102
  %106 = getelementptr inbounds nuw %struct.imap_buffer, ptr %105, i32 0, i32 2
  %107 = load i32, ptr %106, align 4, !tbaa !104
  %108 = add nsw i32 %107, 1
  %109 = sext i32 %108 to i64
  %110 = getelementptr inbounds [1024 x i8], ptr %104, i64 0, i64 %109
  %111 = load i8, ptr %110, align 1, !tbaa !39
  %112 = sext i8 %111 to i32
  %113 = icmp eq i32 %112, 10
  br i1 %113, label %114, label %133

114:                                              ; preds = %102
  %115 = load ptr, ptr %4, align 8, !tbaa !102
  %116 = getelementptr inbounds nuw %struct.imap_buffer, ptr %115, i32 0, i32 3
  %117 = load ptr, ptr %4, align 8, !tbaa !102
  %118 = getelementptr inbounds nuw %struct.imap_buffer, ptr %117, i32 0, i32 2
  %119 = load i32, ptr %118, align 4, !tbaa !104
  %120 = sext i32 %119 to i64
  %121 = getelementptr inbounds [1024 x i8], ptr %116, i64 0, i64 %120
  store i8 0, ptr %121, align 1, !tbaa !39
  %122 = load ptr, ptr %4, align 8, !tbaa !102
  %123 = getelementptr inbounds nuw %struct.imap_buffer, ptr %122, i32 0, i32 2
  %124 = load i32, ptr %123, align 4, !tbaa !104
  %125 = add nsw i32 %124, 2
  store i32 %125, ptr %123, align 4, !tbaa !104
  %126 = load i32, ptr @verbosity, align 4, !tbaa !4
  %127 = icmp slt i32 0, %126
  br i1 %127, label %128, label %132

128:                                              ; preds = %114
  %129 = load ptr, ptr %5, align 8, !tbaa !8
  %130 = load ptr, ptr %129, align 8, !tbaa !29
  %131 = call i32 @puts(ptr noundef %130)
  br label %132

132:                                              ; preds = %128, %114
  store i32 0, ptr %3, align 4
  store i32 1, ptr %8, align 4
  br label %139

133:                                              ; preds = %102
  br label %134

134:                                              ; preds = %133, %91
  %135 = load ptr, ptr %4, align 8, !tbaa !102
  %136 = getelementptr inbounds nuw %struct.imap_buffer, ptr %135, i32 0, i32 2
  %137 = load i32, ptr %136, align 4, !tbaa !104
  %138 = add nsw i32 %137, 1
  store i32 %138, ptr %136, align 4, !tbaa !104
  br label %19

139:                                              ; preds = %132, %84
  call void @llvm.lifetime.end.p0(i64 4, ptr %7) #11
  call void @llvm.lifetime.end.p0(i64 4, ptr %6) #11
  %140 = load i32, ptr %3, align 4
  ret i32 %140
}