; Function Attrs: nounwind uwtable
define internal fastcc range(i32 -1, 1) i32 @buffer_gets(ptr noundef %0, ptr noundef nonnull captures(none) initializes((0, 8)) %1) unnamed_addr #0 {
  %3 = getelementptr inbounds nuw i8, ptr %0, i64 20
  %4 = load i32, ptr %3, align 4, !tbaa !96
  %5 = getelementptr inbounds nuw i8, ptr %0, i64 24
  %6 = sext i32 %4 to i64
  %7 = getelementptr inbounds i8, ptr %5, i64 %6
  store ptr %7, ptr %1, align 8, !tbaa !72
  %8 = getelementptr inbounds nuw i8, ptr %0, i64 16
  %9 = getelementptr inbounds nuw i8, ptr %0, i64 8
  %10 = getelementptr inbounds nuw i8, ptr %0, i64 4
  %.pre = load i32, ptr %8, align 8, !tbaa !97
  br label %11

11:                                               ; preds = %._crit_edge, %2
  %12 = phi i32 [ %.pre, %2 ], [ %61, %._crit_edge ]
  %13 = phi i32 [ %4, %2 ], [ %66, %._crit_edge ]
  %.0 = phi i32 [ %4, %2 ], [ %.1, %._crit_edge ]
  %14 = add nsw i32 %13, 1
  %.not = icmp slt i32 %14, %12
  br i1 %.not, label %59, label %15

15:                                               ; preds = %11
  %.not39 = icmp eq i32 %.0, 0
  br i1 %.not39, label %24, label %16

16:                                               ; preds = %15
  store ptr %5, ptr %1, align 8, !tbaa !72
  %17 = sub nsw i32 %12, %.0
  %.not40 = icmp eq i32 %12, %.0
  br i1 %.not40, label %22, label %18

18:                                               ; preds = %16
  %19 = sext i32 %.0 to i64
  %20 = getelementptr inbounds i8, ptr %5, i64 %19
  %21 = sext i32 %17 to i64
  tail call void @llvm.memmove.p0.p0.i64(ptr nonnull align 8 %5, ptr nonnull align 1 %20, i64 %21, i1 false)
  br label %22

22:                                               ; preds = %18, %16
  %23 = sub nsw i32 %13, %.0
  store i32 %23, ptr %3, align 4, !tbaa !96
  store i32 %17, ptr %8, align 8, !tbaa !97
  br label %24

24:                                               ; preds = %22, %15
  %25 = phi i32 [ %17, %22 ], [ %12, %15 ]
  %26 = sext i32 %25 to i64
  %27 = getelementptr inbounds i8, ptr %5, i64 %26
  %28 = sub i32 1024, %25
  %29 = load ptr, ptr %9, align 8, !tbaa !86
  %.not.i = icmp eq ptr %29, null
  br i1 %.not.i, label %33, label %30

30:                                               ; preds = %24
  %31 = tail call i32 @SSL_read(ptr noundef nonnull %29, ptr noundef nonnull %27, i32 noundef %28) #22
  %32 = sext i32 %31 to i64
  br label %37

33:                                               ; preds = %24
  %34 = load i32, ptr %0, align 8, !tbaa !19
  %35 = sext i32 %28 to i64
  %36 = tail call i64 @xread(i32 noundef %34, ptr noundef nonnull %27, i64 noundef %35) #22
  br label %37

37:                                               ; preds = %33, %30
  %.0.i = phi i64 [ %32, %30 ], [ %36, %33 ]
  %38 = icmp slt i64 %.0.i, 1
  %39 = trunc i64 %.0.i to i32
  br i1 %38, label %40, label %socket_read.exit

40:                                               ; preds = %37
  %.val.i = load ptr, ptr %9, align 8, !tbaa !86
  %.not.i.i = icmp eq ptr %.val.i, null
  br i1 %.not.i.i, label %45, label %41

41:                                               ; preds = %40
  %42 = tail call i32 @SSL_get_error(ptr noundef nonnull %.val.i, i32 noundef %39) #22
  switch i32 %42, label %44 [
    i32 0, label %socket_perror.exit.i
    i32 5, label %43
  ]

43:                                               ; preds = %41
  tail call void @perror(ptr noundef nonnull @.str.75) #24
  br label %socket_perror.exit.i

44:                                               ; preds = %41
  tail call fastcc void @ssl_socket_perror(ptr noundef nonnull @.str.75)
  br label %socket_perror.exit.i

45:                                               ; preds = %40
  %46 = icmp slt i32 %39, 0
  br i1 %46, label %47, label %48

47:                                               ; preds = %45
  tail call void @perror(ptr noundef nonnull @.str.82) #24
  br label %socket_perror.exit.i

48:                                               ; preds = %45
  %49 = load ptr, ptr @stderr, align 8, !tbaa !15
  %50 = tail call i32 (ptr, ptr, ...) @fprintf(ptr noundef %49, ptr noundef nonnull @.str.78, ptr noundef nonnull @.str.82) #26
  br label %socket_perror.exit.i

socket_perror.exit.i:                             ; preds = %48, %47, %44, %43, %41
  %51 = load i32, ptr %0, align 8, !tbaa !19
  %52 = tail call i32 @close(i32 noundef %51) #22
  %53 = load i32, ptr %10, align 4, !tbaa !19
  %54 = tail call i32 @close(i32 noundef %53) #22
  store i32 -1, ptr %10, align 4, !tbaa !19
  store i32 -1, ptr %0, align 8, !tbaa !19
  br label %socket_read.exit

socket_read.exit:                                 ; preds = %37, %socket_perror.exit.i
  %55 = icmp slt i32 %39, 1
  br i1 %55, label %.loopexit, label %56

56:                                               ; preds = %socket_read.exit
  %57 = load i32, ptr %8, align 8, !tbaa !97
  %58 = add nsw i32 %57, %39
  store i32 %58, ptr %8, align 8, !tbaa !97
  %.pre42 = load i32, ptr %3, align 4, !tbaa !96
  br label %59

59:                                               ; preds = %56, %11
  %60 = phi i32 [ %.pre42, %56 ], [ %13, %11 ]
  %61 = phi i32 [ %58, %56 ], [ %12, %11 ]
  %.1 = phi i32 [ 0, %56 ], [ %.0, %11 ]
  %62 = sext i32 %60 to i64
  %63 = getelementptr inbounds [1024 x i8], ptr %5, i64 0, i64 %62
  %64 = load i8, ptr %63, align 1, !tbaa !26
  %65 = icmp eq i8 %64, 13
  %66 = add nsw i32 %60, 1
  br i1 %65, label %67, label %._crit_edge

67:                                               ; preds = %59
  %68 = sext i32 %66 to i64
  %69 = getelementptr inbounds [1024 x i8], ptr %5, i64 0, i64 %68
  %70 = load i8, ptr %69, align 1, !tbaa !26
  %71 = icmp eq i8 %70, 10
  br i1 %71, label %72, label %._crit_edge

72:                                               ; preds = %67
  %73 = getelementptr inbounds [1024 x i8], ptr %5, i64 0, i64 %62
  store i8 0, ptr %73, align 1, !tbaa !26
  %74 = load i32, ptr %3, align 4, !tbaa !96
  %75 = add nsw i32 %74, 2
  store i32 %75, ptr %3, align 4, !tbaa !96
  %76 = load i32, ptr @verbosity, align 4, !tbaa !19
  %77 = icmp sgt i32 %76, 0
  br i1 %77, label %78, label %.loopexit

78:                                               ; preds = %72
  %79 = load ptr, ptr %1, align 8, !tbaa !72
  %80 = tail call i32 @puts(ptr noundef nonnull dereferenceable(1) %79)
  br label %.loopexit

._crit_edge:                                      ; preds = %59, %67
  store i32 %66, ptr %3, align 4, !tbaa !96
  br label %11

.loopexit:                                        ; preds = %socket_read.exit, %72, %78
  %.036 = phi i32 [ 0, %78 ], [ 0, %72 ], [ -1, %socket_read.exit ]
  ret i32 %.036
}